; Function Attrs: mustprogress uwtable
define hidden void @_ZN3vas2ot8Tracklet15RenewTrajectoryERKN2cv5Rect_IfEE(ptr noundef nonnull align 8 dereferenceable(248) %0, ptr noundef nonnull align 4 dereferenceable(16) %1) unnamed_addr #0 align 2 personality ptr @__gxx_personality_v0 {
  %3 = getelementptr inbounds nuw i8, ptr %0, i64 64
  %4 = load ptr, ptr %3, align 8, !tbaa !45, !noalias !66
  %5 = getelementptr inbounds nuw i8, ptr %0, i64 72
  %6 = load ptr, ptr %5, align 8, !tbaa !49, !noalias !66
  %7 = getelementptr inbounds nuw i8, ptr %0, i64 80
  %8 = load ptr, ptr %7, align 8, !tbaa !50, !noalias !66
  %9 = getelementptr inbounds nuw i8, ptr %0, i64 88
  %10 = load ptr, ptr %9, align 8, !tbaa !51, !noalias !66
  %11 = getelementptr inbounds nuw i8, ptr %0, i64 120
  %12 = load ptr, ptr %11, align 8, !tbaa !33
  %13 = icmp ult ptr %10, %12
  br i1 %13, label %.lr.ph.i.i.i.i, label %_ZNSt5dequeIN2cv5Rect_IfEESaIS2_EE5clearEv.exit.i

.lr.ph.i.i.i.i:                                   ; preds = %2, %.lr.ph.i.i.i.i
  %.06.i.pn.i.i.i = phi ptr [ %.06.i.i.i.i, %.lr.ph.i.i.i.i ], [ %10, %2 ]
  %.06.i.i.i.i = getelementptr inbounds nuw i8, ptr %.06.i.pn.i.i.i, i64 8
  %14 = load ptr, ptr %.06.i.i.i.i, align 8, !tbaa !34
  tail call void @_ZdlPv(ptr noundef %14) #18
  %15 = icmp ult ptr %.06.i.i.i.i, %12
  br i1 %15, label %.lr.ph.i.i.i.i, label %_ZNSt5dequeIN2cv5Rect_IfEESaIS2_EE5clearEv.exit.i, !llvm.loop !35

_ZNSt5dequeIN2cv5Rect_IfEESaIS2_EE5clearEv.exit.i: ; preds = %.lr.ph.i.i.i.i, %2
  %16 = getelementptr inbounds nuw i8, ptr %0, i64 96
  store ptr %4, ptr %16, align 8, !tbaa !34
  %.sroa.2.0..sroa_idx.i.i = getelementptr inbounds nuw i8, ptr %0, i64 104
  store ptr %6, ptr %.sroa.2.0..sroa_idx.i.i, align 8, !tbaa !34
  %.sroa.3.0..sroa_idx.i.i = getelementptr inbounds nuw i8, ptr %0, i64 112
  store ptr %8, ptr %.sroa.3.0..sroa_idx.i.i, align 8, !tbaa !34
  store ptr %10, ptr %11, align 8, !tbaa !52
  %17 = getelementptr inbounds nuw i8, ptr %0, i64 144
  %18 = load ptr, ptr %17, align 8, !tbaa !45, !noalias !69
  %19 = getelementptr inbounds nuw i8, ptr %0, i64 152
  %20 = load ptr, ptr %19, align 8, !tbaa !49, !noalias !69
  %21 = getelementptr inbounds nuw i8, ptr %0, i64 160
  %22 = load ptr, ptr %21, align 8, !tbaa !50, !noalias !69
  %23 = getelementptr inbounds nuw i8, ptr %0, i64 168
  %24 = load ptr, ptr %23, align 8, !tbaa !51, !noalias !69
  %25 = getelementptr inbounds nuw i8, ptr %0, i64 200
  %26 = load ptr, ptr %25, align 8, !tbaa !33
  %27 = icmp ult ptr %24, %26
  br i1 %27, label %.lr.ph.i.i.i3.i, label %_ZN3vas2ot8Tracklet15ClearTrajectoryEv.exit

.lr.ph.i.i.i3.i:                                  ; preds = %_ZNSt5dequeIN2cv5Rect_IfEESaIS2_EE5clearEv.exit.i, %.lr.ph.i.i.i3.i
  %.06.i.pn.i.i4.i = phi ptr [ %.06.i.i.i5.i, %.lr.ph.i.i.i3.i ], [ %24, %_ZNSt5dequeIN2cv5Rect_IfEESaIS2_EE5clearEv.exit.i ]
  %.06.i.i.i5.i = getelementptr inbounds nuw i8, ptr %.06.i.pn.i.i4.i, i64 8
  %28 = load ptr, ptr %.06.i.i.i5.i, align 8, !tbaa !34
  tail call void @_ZdlPv(ptr noundef %28) #18
  %29 = icmp ult ptr %.06.i.i.i5.i, %26
  br i1 %29, label %.lr.ph.i.i.i3.i, label %_ZN3vas2ot8Tracklet15ClearTrajectoryEv.exit.loopexit, !llvm.loop !35

_ZN3vas2ot8Tracklet15ClearTrajectoryEv.exit.loopexit: ; preds = %.lr.ph.i.i.i3.i
  %.pre = load ptr, ptr %16, align 8, !tbaa !56
  %.pre5 = load ptr, ptr %.sroa.3.0..sroa_idx.i.i, align 8, !tbaa !57
  br label %_ZN3vas2ot8Tracklet15ClearTrajectoryEv.exit

_ZN3vas2ot8Tracklet15ClearTrajectoryEv.exit:      ; preds = %_ZN3vas2ot8Tracklet15ClearTrajectoryEv.exit.loopexit, %_ZNSt5dequeIN2cv5Rect_IfEESaIS2_EE5clearEv.exit.i
  %30 = phi ptr [ %.pre5, %_ZN3vas2ot8Tracklet15ClearTrajectoryEv.exit.loopexit ], [ %8, %_ZNSt5dequeIN2cv5Rect_IfEESaIS2_EE5clearEv.exit.i ]
  %31 = phi ptr [ %.pre, %_ZN3vas2ot8Tracklet15ClearTrajectoryEv.exit.loopexit ], [ %4, %_ZNSt5dequeIN2cv5Rect_IfEESaIS2_EE5clearEv.exit.i ]
  %32 = getelementptr inbounds nuw i8, ptr %0, i64 176
  store ptr %18, ptr %32, align 8, !tbaa !34
  %.sroa.2.0..sroa_idx.i1.i = getelementptr inbounds nuw i8, ptr %0, i64 184
  store ptr %20, ptr %.sroa.2.0..sroa_idx.i1.i, align 8, !tbaa !34
  %.sroa.3.0..sroa_idx.i2.i = getelementptr inbounds nuw i8, ptr %0, i64 192
  store ptr %22, ptr %.sroa.3.0..sroa_idx.i2.i, align 8, !tbaa !34
  store ptr %24, ptr %25, align 8, !tbaa !52
  %33 = getelementptr inbounds i8, ptr %30, i64 -16
  %.not.i = icmp eq ptr %31, %33
  br i1 %.not.i, label %37, label %34

34:                                               ; preds = %_ZN3vas2ot8Tracklet15ClearTrajectoryEv.exit
  tail call void @llvm.memcpy.p0.p0.i64(ptr noundef nonnull align 4 dereferenceable(16) %31, ptr noundef nonnull align 4 dereferenceable(16) %1, i64 16, i1 false), !tbaa.struct !58
  %35 = load ptr, ptr %16, align 8, !tbaa !56
  %36 = getelementptr inbounds nuw i8, ptr %35, i64 16
  store ptr %36, ptr %16, align 8, !tbaa !56
  br label %_ZNSt5dequeIN2cv5Rect_IfEESaIS2_EE9push_backERKS2_.exit

37:                                               ; preds = %_ZN3vas2ot8Tracklet15ClearTrajectoryEv.exit
  %38 = getelementptr inbounds nuw i8, ptr %0, i64 48
  tail call void @_ZNSt5dequeIN2cv5Rect_IfEESaIS2_EE16_M_push_back_auxIJRKS2_EEEvDpOT_(ptr noundef nonnull align 8 dereferenceable(80) %38, ptr noundef nonnull align 4 dereferenceable(16) %1)
  br label %_ZNSt5dequeIN2cv5Rect_IfEESaIS2_EE9push_backERKS2_.exit

_ZNSt5dequeIN2cv5Rect_IfEESaIS2_EE9push_backERKS2_.exit: ; preds = %34, %37
  %39 = load ptr, ptr %32, align 8, !tbaa !56
  %40 = load ptr, ptr %.sroa.3.0..sroa_idx.i2.i, align 8, !tbaa !57
  %41 = getelementptr inbounds i8, ptr %40, i64 -16
  %.not.i3 = icmp eq ptr %39, %41
  br i1 %.not.i3, label %45, label %42

42:                                               ; preds = %_ZNSt5dequeIN2cv5Rect_IfEESaIS2_EE9push_backERKS2_.exit
  tail call void @llvm.memcpy.p0.p0.i64(ptr noundef nonnull align 4 dereferenceable(16) %39, ptr noundef nonnull align 4 dereferenceable(16) %1, i64 16, i1 false), !tbaa.struct !58
  %43 = load ptr, ptr %32, align 8, !tbaa !56
  %44 = getelementptr inbounds nuw i8, ptr %43, i64 16
  store ptr %44, ptr %32, align 8, !tbaa !56
  br label %_ZNSt5dequeIN2cv5Rect_IfEESaIS2_EE9push_backERKS2_.exit4

45:                                               ; preds = %_ZNSt5dequeIN2cv5Rect_IfEESaIS2_EE9push_backERKS2_.exit
  %46 = getelementptr inbounds nuw i8, ptr %0, i64 128
  tail call void @_ZNSt5dequeIN2cv5Rect_IfEESaIS2_EE16_M_push_back_auxIJRKS2_EEEvDpOT_(ptr noundef nonnull align 8 dereferenceable(80) %46, ptr noundef nonnull align 4 dereferenceable(16) %1)
  br label %_ZNSt5dequeIN2cv5Rect_IfEESaIS2_EE9push_backERKS2_.exit4

_ZNSt5dequeIN2cv5Rect_IfEESaIS2_EE9push_backERKS2_.exit4: ; preds = %42, %45
  ret void
}